ccopy_reg
_reconstructor
p0
(cnetworkx.classes.graph
Graph
p1
c__builtin__
object
p2
Ntp3
Rp4
(dp5
S'node'
p6
(dp7
I0
(dp8
sI1
(dp9
sI2
(dp10
sI3
(dp11
sI4
(dp12
sI5
(dp13
sI6
(dp14
sI7
(dp15
sI8
(dp16
sI9
(dp17
ssS'graph'
p18
(dp19
S'name'
p20
S'watts_strogatz_graph(10,3,0.6)'
p21
ssS'edge'
p22
(dp23
I0
(dp24
I8
(dp25
ssI1
(dp26
I2
(dp27
sI3
(dp28
ssI2
(dp29
I1
g27
sI9
(dp30
ssI3
(dp31
I1
g28
sI4
(dp32
ssI4
(dp33
I3
g32
sI5
(dp34
sI7
(dp35
ssI5
(dp36
I4
g34
sI6
(dp37
ssI6
(dp38
I9
(dp39
sI5
g37
ssI7
(dp40
I4
g35
ssI8
(dp41
I0
g25
sI9
(dp42
ssI9
(dp43
I8
g42
sI2
g30
sI6
g39
sssS'adj'
p44
g23
sb.