ccopy_reg
_reconstructor
p0
(cnetworkx.classes.graph
Graph
p1
c__builtin__
object
p2
Ntp3
Rp4
(dp5
S'node'
p6
(dp7
I0
(dp8
sI1
(dp9
sI2
(dp10
sI3
(dp11
sI4
(dp12
sI5
(dp13
sI6
(dp14
sI7
(dp15
sI8
(dp16
sI9
(dp17
ssS'graph'
p18
(dp19
S'name'
p20
S'watts_strogatz_graph(10,3,0.6)'
p21
ssS'edge'
p22
(dp23
I0
(dp24
I8
(dp25
sI4
(dp26
sI7
(dp27
ssI1
(dp28
I3
(dp29
sI5
(dp30
sI7
(dp31
ssI2
(dp32
I6
(dp33
ssI3
(dp34
I1
g29
ssI4
(dp35
I0
g26
sI5
(dp36
ssI5
(dp37
I1
g30
sI4
g36
ssI6
(dp38
I9
(dp39
sI2
g33
ssI7
(dp40
I0
g27
sI1
g31
ssI8
(dp41
I0
g25
sI9
(dp42
ssI9
(dp43
I8
g42
sI6
g39
sssS'adj'
p44
g23
sb.